; Function Attrs: mustprogress nounwind uwtable
define hidden void @_ZN3ue214SomSlotManagerD2Ev(ptr noundef nonnull align 8 dereferenceable(104) %this) unnamed_addr #5 align 2 personality ptr @__gxx_personality_v0 {
entry:
  %rev_nfas = getelementptr inbounds i8, ptr %this, i64 16
  tail call void @_ZNSt5dequeIN3ue212bytecode_ptrI3NFAEESaIS3_EED2Ev(ptr noundef nonnull align 8 dereferenceable(80) %rev_nfas) #20
  %cache = getelementptr inbounds i8, ptr %this, i64 8
  %0 = load ptr, ptr %cache, align 8
  %cmp.not.i = icmp eq ptr %0, null
  br i1 %cmp.not.i, label %_ZNSt10unique_ptrIN3ue29SlotCacheESt14default_deleteIS1_EED2Ev.exit, label %_ZNKSt14default_deleteIN3ue29SlotCacheEEclEPS1_.exit.i

_ZNKSt14default_deleteIN3ue29SlotCacheEEclEPS1_.exit.i: ; preds = %entry
  tail call void @_ZN3ue29SlotCacheD2Ev(ptr noundef nonnull align 8 dereferenceable(136) %0) #20
  tail call void @_ZdlPv(ptr noundef nonnull %0) #22
  br label %_ZNSt10unique_ptrIN3ue29SlotCacheESt14default_deleteIS1_EED2Ev.exit

_ZNSt10unique_ptrIN3ue29SlotCacheESt14default_deleteIS1_EED2Ev.exit: ; preds = %entry, %_ZNKSt14default_deleteIN3ue29SlotCacheEEclEPS1_.exit.i
  store ptr null, ptr %cache, align 8
  ret void
}